; ModuleID = '22/886.c'
source_filename = "22/886.c"
target datalayout = "e-m:e-p270:32:32-p271:32:32-p272:64:64-i64:64-f80:128-n8:16:32:64-S128"
target triple = "x86_64-pc-linux-gnu"

@.str = private unnamed_addr constant [3 x i8] c"%d\00", align 1
@.str.1 = private unnamed_addr constant [3 x i8] c"%c\00", align 1
@.str.2 = private unnamed_addr constant [3 x i8] c"No\00", align 1

; Function Attrs: noinline nounwind uwtable
define dso_local i32 @main() #0 {
  %1 = alloca i32, align 4
  %2 = alloca i32, align 4
  %3 = alloca i32, align 4
  %4 = alloca i32, align 4
  %5 = alloca i32, align 4
  %6 = alloca i32, align 4
  %7 = alloca i32, align 4
  %8 = alloca i8, align 1
  store i32 0, i32* %1, align 4
  store i32 -999, i32* %6, align 4
  store i32 0, i32* %7, align 4
  store i32 0, i32* %4, align 4
  store i32 0, i32* %3, align 4
  store i32 0, i32* %2, align 4
  br label %9

9:                                                ; preds = %46, %0
  %10 = load i32, i32* %2, align 4
  %11 = icmp slt i32 %10, 300
  br i1 %11, label %12, label %49

12:                                               ; preds = %9
  %13 = call i32 (i8*, ...) @__isoc99_scanf(i8* getelementptr inbounds ([3 x i8], [3 x i8]* @.str, i64 0, i64 0), i32* %5)
  %14 = call i32 (i8*, ...) @__isoc99_scanf(i8* getelementptr inbounds ([3 x i8], [3 x i8]* @.str.1, i64 0, i64 0), i8* %8)
  %15 = load i32, i32* %5, align 4
  %16 = load i32, i32* %6, align 4
  %17 = icmp eq i32 %15, %16
  br i1 %17, label %18, label %21

18:                                               ; preds = %12
  %19 = load i32, i32* %7, align 4
  %20 = add nsw i32 %19, 1
  store i32 %20, i32* %7, align 4
  br label %21

21:                                               ; preds = %18, %12
  %22 = load i32, i32* %5, align 4
  %23 = load i32, i32* %3, align 4
  %24 = icmp sgt i32 %22, %23
  br i1 %24, label %25, label %28

25:                                               ; preds = %21
  %26 = load i32, i32* %3, align 4
  store i32 %26, i32* %4, align 4
  %27 = load i32, i32* %5, align 4
  store i32 %27, i32* %3, align 4
  br label %39

28:                                               ; preds = %21
  %29 = load i32, i32* %5, align 4
  %30 = load i32, i32* %3, align 4
  %31 = icmp slt i32 %29, %30
  br i1 %31, label %32, label %38

32:                                               ; preds = %28
  %33 = load i32, i32* %5, align 4
  %34 = load i32, i32* %4, align 4
  %35 = icmp sgt i32 %33, %34
  br i1 %35, label %36, label %38

36:                                               ; preds = %32
  %37 = load i32, i32* %5, align 4
  store i32 %37, i32* %4, align 4
  br label %38

38:                                               ; preds = %36, %32, %28
  br label %39

39:                                               ; preds = %38, %25
  %40 = load i32, i32* %5, align 4
  store i32 %40, i32* %6, align 4
  %41 = load i8, i8* %8, align 1
  %42 = sext i8 %41 to i32
  %43 = icmp eq i32 %42, 10
  br i1 %43, label %44, label %45

44:                                               ; preds = %39
  br label %49

45:                                               ; preds = %39
  br label %46

46:                                               ; preds = %45
  %47 = load i32, i32* %2, align 4
  %48 = add nsw i32 %47, 1
  store i32 %48, i32* %2, align 4
  br label %9

49:                                               ; preds = %44, %9
  %50 = load i32, i32* %2, align 4
  %51 = icmp sle i32 %50, 1
  br i1 %51, label %52, label %54

52:                                               ; preds = %49
  %53 = call i32 (i8*, ...) @printf(i8* getelementptr inbounds ([3 x i8], [3 x i8]* @.str.2, i64 0, i64 0))
  br label %64

54:                                               ; preds = %49
  %55 = load i32, i32* %2, align 4
  %56 = load i32, i32* %7, align 4
  %57 = icmp eq i32 %55, %56
  br i1 %57, label %58, label %60

58:                                               ; preds = %54
  %59 = call i32 (i8*, ...) @printf(i8* getelementptr inbounds ([3 x i8], [3 x i8]* @.str.2, i64 0, i64 0))
  br label %63

60:                                               ; preds = %54
  %61 = load i32, i32* %4, align 4
  %62 = call i32 (i8*, ...) @printf(i8* getelementptr inbounds ([3 x i8], [3 x i8]* @.str, i64 0, i64 0), i32 %61)
  br label %63

63:                                               ; preds = %60, %58
  br label %64

64:                                               ; preds = %63, %52
  ret i32 0
}

declare dso_local i32 @__isoc99_scanf(i8*, ...) #1

declare dso_local i32 @printf(i8*, ...) #1


!llvm.module.flags = !{!0}
!llvm.ident = !{!1}

!0 = !{i32 1, !"wchar_size", i32 4}
!1 = !{!"clang version 10.0.0-4ubuntu1 "}
