; ModuleID = 'source-C-CXX/21/886.c'
source_filename = "source-C-CXX/21/886.c"
target datalayout = "e-m:e-p270:32:32-p271:32:32-p272:64:64-i64:64-f80:128-n8:16:32:64-S128"
target triple = "x86_64-pc-linux-gnu"

@.str = private unnamed_addr constant [3 x i8] c"%d\00", align 1
@.str.1 = private unnamed_addr constant [3 x i8] c"%c\00", align 1
@.str.2 = private unnamed_addr constant [3 x i8] c"No\00", align 1

; Function Attrs: nofree nounwind sspstrong uwtable
define dso_local i32 @main() local_unnamed_addr #0 {
  %1 = alloca i32, align 4
  %2 = alloca i8, align 1
  %3 = bitcast i32* %1 to i8*
  call void @llvm.lifetime.start.p0i8(i64 4, i8* nonnull %3) #3
  call void @llvm.lifetime.start.p0i8(i64 1, i8* nonnull %2) #3
  br label %4

4:                                                ; preds = %0, %24
  %5 = phi i32 [ 0, %0 ], [ %15, %24 ]
  %6 = phi i32 [ -999, %0 ], [ %12, %24 ]
  %7 = phi i32 [ 0, %0 ], [ %21, %24 ]
  %8 = phi i32 [ 0, %0 ], [ %25, %24 ]
  %9 = phi i32 [ 0, %0 ], [ %26, %24 ]
  %10 = call i32 (i8*, ...) @__isoc99_scanf(i8* getelementptr inbounds ([3 x i8], [3 x i8]* @.str, i64 0, i64 0), i32* nonnull %1)
  %11 = call i32 (i8*, ...) @__isoc99_scanf(i8* getelementptr inbounds ([3 x i8], [3 x i8]* @.str.1, i64 0, i64 0), i8* nonnull %2)
  %12 = load i32, i32* %1, align 4, !tbaa !5
  %13 = icmp eq i32 %12, %6
  %14 = zext i1 %13 to i32
  %15 = add nuw nsw i32 %5, %14
  %16 = icmp sgt i32 %12, %8
  %17 = icmp slt i32 %12, %8
  %18 = icmp sgt i32 %12, %7
  %19 = select i1 %17, i1 %18, i1 false
  %20 = select i1 %19, i32 %12, i32 %7
  %21 = select i1 %16, i32 %8, i32 %20
  %22 = load i8, i8* %2, align 1, !tbaa !9
  %23 = icmp eq i8 %22, 10
  br i1 %23, label %28, label %24

24:                                               ; preds = %4
  %25 = select i1 %16, i32 %12, i32 %8
  %26 = add nuw nsw i32 %9, 1
  %27 = icmp eq i32 %26, 300
  br i1 %27, label %32, label %4, !llvm.loop !10

28:                                               ; preds = %4
  %29 = icmp ult i32 %9, 2
  br i1 %29, label %30, label %32

30:                                               ; preds = %28
  %31 = call i32 (i8*, ...) @printf(i8* nonnull dereferenceable(1) getelementptr inbounds ([3 x i8], [3 x i8]* @.str.2, i64 0, i64 0))
  br label %39

32:                                               ; preds = %24, %28
  %33 = phi i32 [ %9, %28 ], [ 300, %24 ]
  %34 = icmp eq i32 %33, %15
  br i1 %34, label %35, label %37

35:                                               ; preds = %32
  %36 = call i32 (i8*, ...) @printf(i8* nonnull dereferenceable(1) getelementptr inbounds ([3 x i8], [3 x i8]* @.str.2, i64 0, i64 0))
  br label %39

37:                                               ; preds = %32
  %38 = call i32 (i8*, ...) @printf(i8* nonnull dereferenceable(1) getelementptr inbounds ([3 x i8], [3 x i8]* @.str, i64 0, i64 0), i32 %21)
  br label %39

39:                                               ; preds = %35, %37, %30
  call void @llvm.lifetime.end.p0i8(i64 1, i8* nonnull %2) #3
  call void @llvm.lifetime.end.p0i8(i64 4, i8* nonnull %3) #3
  ret i32 0
}

; Function Attrs: argmemonly mustprogress nofree nosync nounwind willreturn
declare void @llvm.lifetime.start.p0i8(i64 immarg, i8* nocapture) #1

; Function Attrs: nofree nounwind
declare noundef i32 @__isoc99_scanf(i8* nocapture noundef readonly, ...) local_unnamed_addr #2

; Function Attrs: nofree nounwind
declare noundef i32 @printf(i8* nocapture noundef readonly, ...) local_unnamed_addr #2

; Function Attrs: argmemonly mustprogress nofree nosync nounwind willreturn
declare void @llvm.lifetime.end.p0i8(i64 immarg, i8* nocapture) #1


!llvm.module.flags = !{!0, !1, !2, !3}
!llvm.ident = !{!4}

!0 = !{i32 1, !"wchar_size", i32 4}
!1 = !{i32 7, !"PIC Level", i32 2}
!2 = !{i32 7, !"PIE Level", i32 2}
!3 = !{i32 7, !"uwtable", i32 1}
!4 = !{!"clang version 13.0.0"}
!5 = !{!6, !6, i64 0}
!6 = !{!"int", !7, i64 0}
!7 = !{!"omnipotent char", !8, i64 0}
!8 = !{!"Simple C/C++ TBAA"}
!9 = !{!7, !7, i64 0}
!10 = distinct !{!10, !11}
!11 = !{!"llvm.loop.mustprogress"}
